; Function Attrs: mustprogress uwtable
define hidden noundef nonnull align 8 dereferenceable(116) ptr @_ZN4cvc58internal11NodeBuilderlsENS0_12NodeTemplateILb0EEE(ptr noundef nonnull returned align 8 dereferenceable(116) %this, ptr nocapture noundef readonly %n) local_unnamed_addr #3 align 2 personality ptr @__gxx_personality_v0 {
entry:
  %n2 = alloca %"class.cvc5::internal::NodeTemplate", align 8
  %agg.tmp = alloca %"class.cvc5::internal::NodeTemplate.0", align 8
  %agg.tmp7 = alloca %"class.cvc5::internal::NodeTemplate.0", align 8
  %d_nv = getelementptr inbounds i8, ptr %this, i64 96
  %0 = load ptr, ptr %d_nv, align 8
  %bf.load = load i64, ptr %0, align 8
  %bf.clear = and i64 %bf.load, 1099511627775
  %cmp = icmp eq i64 %bf.clear, 0
  br i1 %cmp, label %land.rhs, label %if.end

land.rhs:                                         ; preds = %entry
  %d_kind.i.i = getelementptr inbounds i8, ptr %0, i64 8
  %bf.load.i.i = load i16, ptr %d_kind.i.i, align 8
  %bf.clear.i.i = and i16 %bf.load.i.i, 1023
  %cmp.i.i.i = icmp eq i16 %bf.clear.i.i, 1023
  br i1 %cmp.i.i.i, label %if.end, label %if.then

if.then:                                          ; preds = %land.rhs
  tail call void @llvm.experimental.noalias.scope.decl(metadata !22)
  tail call void @llvm.experimental.noalias.scope.decl(metadata !25)
  %call.i.i = tail call noundef ptr @_ZN4cvc58internal11NodeBuilder11constructNVEv(ptr noundef nonnull align 8 dereferenceable(116) %this), !noalias !28
  store ptr %call.i.i, ptr %n2, align 8, !alias.scope !28
  %bf.load.i.i.i.i = load i64, ptr %call.i.i, align 8, !noalias !28
  %bf.lshr.i.i.i.i = lshr i64 %bf.load.i.i.i.i, 40
  %1 = trunc i64 %bf.lshr.i.i.i.i to i32
  %bf.cast.i.i.i.i = and i32 %1, 1048575
  %cmp.i.i.i.i = icmp ult i32 %bf.cast.i.i.i.i, 1048574
  br i1 %cmp.i.i.i.i, label %if.then.i.i.i.i, label %if.else.i.i.i.i

if.then.i.i.i.i:                                  ; preds = %if.then
  %bf.value.i.i.i.i = add i64 %bf.load.i.i.i.i, 1099511627776
  %bf.shl.i.i.i.i = and i64 %bf.value.i.i.i.i, 1152920405095219200
  %bf.clear7.i.i.i.i = and i64 %bf.load.i.i.i.i, -1152920405095219201
  %bf.set.i.i.i.i = or disjoint i64 %bf.shl.i.i.i.i, %bf.clear7.i.i.i.i
  store i64 %bf.set.i.i.i.i, ptr %call.i.i, align 8, !noalias !28
  br label %_ZN4cvc58internal11NodeBuildercvNS0_12NodeTemplateILb1EEEEv.exit

if.else.i.i.i.i:                                  ; preds = %if.then
  %cmp12.i.i.i.i = icmp eq i32 %bf.cast.i.i.i.i, 1048574
  br i1 %cmp12.i.i.i.i, label %if.then13.i.i.i.i, label %_ZN4cvc58internal11NodeBuildercvNS0_12NodeTemplateILb1EEEEv.exit

if.then13.i.i.i.i:                                ; preds = %if.else.i.i.i.i
  %bf.set23.i.i.i.i = or i64 %bf.load.i.i.i.i, 1152920405095219200
  store i64 %bf.set23.i.i.i.i, ptr %call.i.i, align 8, !noalias !28
  tail call void @_ZN4cvc58internal4expr9NodeValue20markRefCountMaxedOutEv(ptr noundef nonnull align 8 dereferenceable(16) %call.i.i), !noalias !28
  br label %_ZN4cvc58internal11NodeBuildercvNS0_12NodeTemplateILb1EEEEv.exit

_ZN4cvc58internal11NodeBuildercvNS0_12NodeTemplateILb1EEEEv.exit: ; preds = %if.then.i.i.i.i, %if.else.i.i.i.i, %if.then13.i.i.i.i
  invoke void @_ZN4cvc58internal11NodeBuilder5clearENS0_4kind6Kind_tE(ptr noundef nonnull align 8 dereferenceable(116) %this, i32 noundef -1)
          to label %invoke.cont unwind label %lpad

invoke.cont:                                      ; preds = %_ZN4cvc58internal11NodeBuildercvNS0_12NodeTemplateILb1EEEEv.exit
  store ptr %call.i.i, ptr %agg.tmp, align 8
  %call6 = invoke noundef nonnull align 8 dereferenceable(116) ptr @_ZN4cvc58internal11NodeBuilder6appendENS0_12NodeTemplateILb0EEE(ptr noundef nonnull align 8 dereferenceable(116) %this, ptr noundef nonnull %agg.tmp)
          to label %invoke.cont5 unwind label %lpad4

invoke.cont5:                                     ; preds = %invoke.cont
  %bf.load.i.i4 = load i64, ptr %call.i.i, align 8
  %2 = and i64 %bf.load.i.i4, 1152920405095219200
  %cmp.not.i.i = icmp eq i64 %2, 1152920405095219200
  br i1 %cmp.not.i.i, label %if.end, label %if.then.i.i

if.then.i.i:                                      ; preds = %invoke.cont5
  %bf.value.i.i = add i64 %bf.load.i.i4, 1152920405095219200
  %bf.shl.i.i = and i64 %bf.value.i.i, 1152920405095219200
  %bf.clear7.i.i = and i64 %bf.load.i.i4, -1152920405095219201
  %bf.set.i.i = or disjoint i64 %bf.shl.i.i, %bf.clear7.i.i
  store i64 %bf.set.i.i, ptr %call.i.i, align 8
  %cmp12.i.i = icmp eq i64 %bf.shl.i.i, 0
  br i1 %cmp12.i.i, label %if.then13.i.i, label %if.end

if.then13.i.i:                                    ; preds = %if.then.i.i
  invoke void @_ZN4cvc58internal4expr9NodeValue15markForDeletionEv(ptr noundef nonnull align 8 dereferenceable(16) %call.i.i)
          to label %if.end unwind label %terminate.lpad.i

terminate.lpad.i:                                 ; preds = %if.then13.i.i
  %3 = landingpad { ptr, i32 }
          catch ptr null
  %4 = extractvalue { ptr, i32 } %3, 0
  tail call void @__clang_call_terminate(ptr %4) #24
  unreachable

lpad:                                             ; preds = %_ZN4cvc58internal11NodeBuildercvNS0_12NodeTemplateILb1EEEEv.exit
  %5 = landingpad { ptr, i32 }
          cleanup
  br label %ehcleanup

lpad4:                                            ; preds = %invoke.cont
  %6 = landingpad { ptr, i32 }
          cleanup
  br label %ehcleanup

ehcleanup:                                        ; preds = %lpad4, %lpad
  %.pn = phi { ptr, i32 } [ %6, %lpad4 ], [ %5, %lpad ]
  call void @_ZN4cvc58internal12NodeTemplateILb1EED2Ev(ptr noundef nonnull align 8 dereferenceable(8) %n2) #23
  resume { ptr, i32 } %.pn

if.end:                                           ; preds = %if.then13.i.i, %if.then.i.i, %invoke.cont5, %entry, %land.rhs
  %7 = load ptr, ptr %n, align 8
  store ptr %7, ptr %agg.tmp7, align 8
  %call10 = call noundef nonnull align 8 dereferenceable(116) ptr @_ZN4cvc58internal11NodeBuilder6appendENS0_12NodeTemplateILb0EEE(ptr noundef nonnull align 8 dereferenceable(116) %this, ptr noundef nonnull %agg.tmp7)
  ret ptr %this
}